target datalayout = "e-m:e-p270:32:32-p271:32:32-p272:64:64-i64:64-i128:128-f80:128-n8:16:32:64-S128"
target triple = "x86_64-pc-linux-gnu"

; Function Attrs: nounwind uwtable
define i64 @stbds_hash_bytes(ptr noundef %0, i64 noundef %1, i64 noundef %2) #0 {
  %4 = alloca i64, align 8
  %5 = alloca ptr, align 8
  %6 = alloca i64, align 8
  %7 = alloca i64, align 8
  %8 = alloca ptr, align 8
  %9 = alloca i32, align 4
  %10 = alloca i32, align 4
  %11 = alloca i64, align 8
  store ptr %0, ptr %5, align 8, !tbaa !3
  store i64 %1, ptr %6, align 8, !tbaa !7
  store i64 %2, ptr %7, align 8, !tbaa !7
  call void @llvm.lifetime.start.p0(i64 8, ptr %8) #7
  %12 = load ptr, ptr %5, align 8, !tbaa !3
  store ptr %12, ptr %8, align 8, !tbaa !39
  %13 = load i64, ptr %6, align 8, !tbaa !7
  %14 = icmp eq i64 %13, 4
  br i1 %14, label %15, label %76

15:                                               ; preds = %3
  call void @llvm.lifetime.start.p0(i64 4, ptr %9) #7
  %16 = load ptr, ptr %8, align 8, !tbaa !39
  %17 = getelementptr inbounds i8, ptr %16, i64 0
  %18 = load i8, ptr %17, align 1, !tbaa !30
  %19 = zext i8 %18 to i32
  %20 = load ptr, ptr %8, align 8, !tbaa !39
  %21 = getelementptr inbounds i8, ptr %20, i64 1
  %22 = load i8, ptr %21, align 1, !tbaa !30
  %23 = zext i8 %22 to i32
  %24 = shl i32 %23, 8
  %25 = or i32 %19, %24
  %26 = load ptr, ptr %8, align 8, !tbaa !39
  %27 = getelementptr inbounds i8, ptr %26, i64 2
  %28 = load i8, ptr %27, align 1, !tbaa !30
  %29 = zext i8 %28 to i32
  %30 = shl i32 %29, 16
  %31 = or i32 %25, %30
  %32 = load ptr, ptr %8, align 8, !tbaa !39
  %33 = getelementptr inbounds i8, ptr %32, i64 3
  %34 = load i8, ptr %33, align 1, !tbaa !30
  %35 = zext i8 %34 to i32
  %36 = shl i32 %35, 24
  %37 = or i32 %31, %36
  store i32 %37, ptr %9, align 4, !tbaa !45
  %38 = load i64, ptr %7, align 8, !tbaa !7
  %39 = load i32, ptr %9, align 4, !tbaa !45
  %40 = zext i32 %39 to i64
  %41 = xor i64 %40, %38
  %42 = trunc i64 %41 to i32
  store i32 %42, ptr %9, align 4, !tbaa !45
  %43 = load i32, ptr %9, align 4, !tbaa !45
  %44 = xor i32 %43, 61
  %45 = load i32, ptr %9, align 4, !tbaa !45
  %46 = lshr i32 %45, 16
  %47 = xor i32 %44, %46
  store i32 %47, ptr %9, align 4, !tbaa !45
  %48 = load i32, ptr %9, align 4, !tbaa !45
  %49 = load i32, ptr %9, align 4, !tbaa !45
  %50 = shl i32 %49, 3
  %51 = add i32 %48, %50
  store i32 %51, ptr %9, align 4, !tbaa !45
  %52 = load i32, ptr %9, align 4, !tbaa !45
  %53 = load i32, ptr %9, align 4, !tbaa !45
  %54 = lshr i32 %53, 4
  %55 = xor i32 %52, %54
  store i32 %55, ptr %9, align 4, !tbaa !45
  %56 = load i32, ptr %9, align 4, !tbaa !45
  %57 = mul i32 %56, 668265261
  store i32 %57, ptr %9, align 4, !tbaa !45
  %58 = load i64, ptr %7, align 8, !tbaa !7
  %59 = load i32, ptr %9, align 4, !tbaa !45
  %60 = zext i32 %59 to i64
  %61 = xor i64 %60, %58
  %62 = trunc i64 %61 to i32
  store i32 %62, ptr %9, align 4, !tbaa !45
  %63 = load i32, ptr %9, align 4, !tbaa !45
  %64 = load i32, ptr %9, align 4, !tbaa !45
  %65 = lshr i32 %64, 15
  %66 = xor i32 %63, %65
  store i32 %66, ptr %9, align 4, !tbaa !45
  %67 = load i32, ptr %9, align 4, !tbaa !45
  %68 = zext i32 %67 to i64
  %69 = shl i64 %68, 16
  %70 = shl i64 %69, 16
  %71 = load i32, ptr %9, align 4, !tbaa !45
  %72 = zext i32 %71 to i64
  %73 = or i64 %70, %72
  %74 = load i64, ptr %7, align 8, !tbaa !7
  %75 = xor i64 %73, %74
  store i64 %75, ptr %4, align 8
  store i32 1, ptr %10, align 4
  call void @llvm.lifetime.end.p0(i64 4, ptr %9) #7
  br label %181

76:                                               ; preds = %3
  %77 = load i64, ptr %6, align 8, !tbaa !7
  %78 = icmp eq i64 %77, 8
  br i1 %78, label %79, label %176

79:                                               ; preds = %76
  call void @llvm.lifetime.start.p0(i64 8, ptr %11) #7
  %80 = load ptr, ptr %8, align 8, !tbaa !39
  %81 = getelementptr inbounds i8, ptr %80, i64 0
  %82 = load i8, ptr %81, align 1, !tbaa !30
  %83 = zext i8 %82 to i32
  %84 = load ptr, ptr %8, align 8, !tbaa !39
  %85 = getelementptr inbounds i8, ptr %84, i64 1
  %86 = load i8, ptr %85, align 1, !tbaa !30
  %87 = zext i8 %86 to i32
  %88 = shl i32 %87, 8
  %89 = or i32 %83, %88
  %90 = load ptr, ptr %8, align 8, !tbaa !39
  %91 = getelementptr inbounds i8, ptr %90, i64 2
  %92 = load i8, ptr %91, align 1, !tbaa !30
  %93 = zext i8 %92 to i32
  %94 = shl i32 %93, 16
  %95 = or i32 %89, %94
  %96 = load ptr, ptr %8, align 8, !tbaa !39
  %97 = getelementptr inbounds i8, ptr %96, i64 3
  %98 = load i8, ptr %97, align 1, !tbaa !30
  %99 = zext i8 %98 to i32
  %100 = shl i32 %99, 24
  %101 = or i32 %95, %100
  %102 = sext i32 %101 to i64
  store i64 %102, ptr %11, align 8, !tbaa !7
  %103 = load ptr, ptr %8, align 8, !tbaa !39
  %104 = getelementptr inbounds i8, ptr %103, i64 4
  %105 = load i8, ptr %104, align 1, !tbaa !30
  %106 = zext i8 %105 to i32
  %107 = load ptr, ptr %8, align 8, !tbaa !39
  %108 = getelementptr inbounds i8, ptr %107, i64 5
  %109 = load i8, ptr %108, align 1, !tbaa !30
  %110 = zext i8 %109 to i32
  %111 = shl i32 %110, 8
  %112 = or i32 %106, %111
  %113 = load ptr, ptr %8, align 8, !tbaa !39
  %114 = getelementptr inbounds i8, ptr %113, i64 6
  %115 = load i8, ptr %114, align 1, !tbaa !30
  %116 = zext i8 %115 to i32
  %117 = shl i32 %116, 16
  %118 = or i32 %112, %117
  %119 = load ptr, ptr %8, align 8, !tbaa !39
  %120 = getelementptr inbounds i8, ptr %119, i64 7
  %121 = load i8, ptr %120, align 1, !tbaa !30
  %122 = zext i8 %121 to i32
  %123 = shl i32 %122, 24
  %124 = or i32 %118, %123
  %125 = sext i32 %124 to i64
  %126 = shl i64 %125, 16
  %127 = shl i64 %126, 16
  %128 = load i64, ptr %11, align 8, !tbaa !7
  %129 = or i64 %128, %127
  store i64 %129, ptr %11, align 8, !tbaa !7
  %130 = load i64, ptr %7, align 8, !tbaa !7
  %131 = load i64, ptr %11, align 8, !tbaa !7
  %132 = xor i64 %131, %130
  store i64 %132, ptr %11, align 8, !tbaa !7
  %133 = load i64, ptr %11, align 8, !tbaa !7
  %134 = xor i64 %133, -1
  %135 = load i64, ptr %11, align 8, !tbaa !7
  %136 = shl i64 %135, 21
  %137 = add i64 %134, %136
  store i64 %137, ptr %11, align 8, !tbaa !7
  %138 = load i64, ptr %11, align 8, !tbaa !7
  %139 = lshr i64 %138, 24
  %140 = load i64, ptr %11, align 8, !tbaa !7
  %141 = shl i64 %140, 40
  %142 = or i64 %139, %141
  %143 = load i64, ptr %11, align 8, !tbaa !7
  %144 = xor i64 %143, %142
  store i64 %144, ptr %11, align 8, !tbaa !7
  %145 = load i64, ptr %11, align 8, !tbaa !7
  %146 = mul i64 %145, 265
  store i64 %146, ptr %11, align 8, !tbaa !7
  %147 = load i64, ptr %11, align 8, !tbaa !7
  %148 = lshr i64 %147, 14
  %149 = load i64, ptr %11, align 8, !tbaa !7
  %150 = shl i64 %149, 50
  %151 = or i64 %148, %150
  %152 = load i64, ptr %11, align 8, !tbaa !7
  %153 = xor i64 %152, %151
  store i64 %153, ptr %11, align 8, !tbaa !7
  %154 = load i64, ptr %7, align 8, !tbaa !7
  %155 = load i64, ptr %11, align 8, !tbaa !7
  %156 = xor i64 %155, %154
  store i64 %156, ptr %11, align 8, !tbaa !7
  %157 = load i64, ptr %11, align 8, !tbaa !7
  %158 = mul i64 %157, 21
  store i64 %158, ptr %11, align 8, !tbaa !7
  %159 = load i64, ptr %11, align 8, !tbaa !7
  %160 = lshr i64 %159, 28
  %161 = load i64, ptr %11, align 8, !tbaa !7
  %162 = shl i64 %161, 36
  %163 = or i64 %160, %162
  %164 = load i64, ptr %11, align 8, !tbaa !7
  %165 = xor i64 %164, %163
  store i64 %165, ptr %11, align 8, !tbaa !7
  %166 = load i64, ptr %11, align 8, !tbaa !7
  %167 = shl i64 %166, 31
  %168 = load i64, ptr %11, align 8, !tbaa !7
  %169 = add i64 %168, %167
  store i64 %169, ptr %11, align 8, !tbaa !7
  %170 = load i64, ptr %11, align 8, !tbaa !7
  %171 = xor i64 %170, -1
  %172 = load i64, ptr %11, align 8, !tbaa !7
  %173 = shl i64 %172, 18
  %174 = add i64 %171, %173
  store i64 %174, ptr %11, align 8, !tbaa !7
  %175 = load i64, ptr %11, align 8, !tbaa !7
  store i64 %175, ptr %4, align 8
  store i32 1, ptr %10, align 4
  call void @llvm.lifetime.end.p0(i64 8, ptr %11) #7
  br label %181

176:                                              ; preds = %76
  %177 = load ptr, ptr %5, align 8, !tbaa !3
  %178 = load i64, ptr %6, align 8, !tbaa !7
  %179 = load i64, ptr %7, align 8, !tbaa !7
  %180 = call i64 @stbds_siphash_bytes(ptr noundef %177, i64 noundef %178, i64 noundef %179)
  store i64 %180, ptr %4, align 8
  store i32 1, ptr %10, align 4
  br label %181

181:                                              ; preds = %176, %79, %15
  call void @llvm.lifetime.end.p0(i64 8, ptr %8) #7
  %182 = load i64, ptr %4, align 8
  ret i64 %182
}