; Function Attrs: nofree norecurse nosync nounwind memory(argmem: read) uwtable
define i64 @stbds_hash_bytes(ptr noundef readonly captures(none) %0, i64 noundef %1, i64 noundef %2) local_unnamed_addr #10 {
  switch i64 %1, label %50 [
    i64 4, label %4
    i64 8, label %21
  ]

4:                                                ; preds = %3
  %5 = load i32, ptr %0, align 1
  %6 = trunc i64 %2 to i32
  %7 = xor i32 %5, %6
  %8 = lshr i32 %7, 16
  %9 = xor i32 %7, %8
  %10 = xor i32 %9, 61
  %11 = mul i32 %10, 9
  %12 = lshr i32 %11, 4
  %13 = xor i32 %12, %11
  %14 = mul i32 %13, 668265261
  %15 = xor i32 %14, %6
  %16 = lshr i32 %15, 15
  %17 = xor i32 %16, %15
  %18 = zext i32 %17 to i64
  %19 = mul nuw i64 %18, 4294967297
  %20 = xor i64 %19, %2
  br label %52

21:                                               ; preds = %3
  %22 = load i32, ptr %0, align 1
  %23 = sext i32 %22 to i64
  %24 = getelementptr inbounds nuw i8, ptr %0, i64 4
  %25 = load i32, ptr %24, align 1
  %26 = zext i32 %25 to i64
  %27 = shl nuw i64 %26, 32
  %28 = or i64 %27, %23
  %29 = xor i64 %28, %2
  %30 = xor i64 %29, -1
  %31 = shl i64 %29, 21
  %32 = add i64 %31, %30
  %33 = tail call i64 @llvm.fshl.i64(i64 %32, i64 %32, i64 40)
  %34 = xor i64 %33, %32
  %35 = mul i64 %34, 265
  %36 = lshr i64 %35, 14
  %37 = mul i64 %34, 298363475313295360
  %38 = or disjoint i64 %36, %37
  %39 = xor i64 %2, %38
  %40 = xor i64 %39, %35
  %41 = mul i64 %40, 21
  %42 = lshr i64 %41, 28
  %43 = mul i64 %40, 1443109011456
  %44 = or disjoint i64 %42, %43
  %45 = xor i64 %44, %41
  %46 = mul i64 %45, 2147483649
  %47 = xor i64 %46, -1
  %48 = mul i64 %45, 562949953683456
  %49 = add i64 %48, %47
  br label %52

50:                                               ; preds = %3
  %51 = tail call i64 @stbds_siphash_bytes(ptr noundef %0, i64 noundef %1, i64 noundef %2)
  br label %52

52:                                               ; preds = %50, %21, %4
  %.0 = phi i64 [ %20, %4 ], [ %49, %21 ], [ %51, %50 ]
  ret i64 %.0
}